target datalayout = "e-m:e-p270:32:32-p271:32:32-p272:64:64-i64:64-i128:128-f80:128-n8:16:32:64-S128"
target triple = "x86_64-pc-linux-gnu"

%"class.pro::details::inplace_ptr.54" = type { %"class.(anonymous namespace)::StreamLogger" }
%"class.(anonymous namespace)::StreamLogger" = type { ptr }
%"struct.(anonymous namespace)::spec::Log::__FT" = type { i8 }

@.str.53 = private unnamed_addr constant [9 x i8] c"[ERROR] \00", align 1
@.str.54 = private unnamed_addr constant [19 x i8] c" (exception info: \00", align 1
@.str.55 = private unnamed_addr constant [3 x i8] c")\0A\00", align 1

; Function Attrs: mustprogress nounwind uwtable
define internal noundef ptr @_ZSt12__to_addressIN12_GLOBAL__N_112StreamLoggerEEPT_S3_(ptr noundef %0) #7 {
  %2 = alloca ptr, align 8
  store ptr %0, ptr %2, align 8
  %3 = load ptr, ptr %2, align 8
  ret ptr %3
}

; Function Attrs: mustprogress nounwind uwtable
define internal noundef ptr @_ZNK3pro7details11inplace_ptrIN12_GLOBAL__N_112StreamLoggerEEptEv(ptr noundef nonnull align 8 dereferenceable(8) %0) #7 align 2 {
  %2 = alloca ptr, align 8
  store ptr %0, ptr %2, align 8
  %3 = load ptr, ptr %2, align 8
  %4 = getelementptr inbounds %"class.pro::details::inplace_ptr.54", ptr %3, i32 0, i32 0
  ret ptr %4
}

; Function Attrs: mustprogress uwtable
define internal void @_ZN12_GLOBAL__N_112StreamLogger3LogEPKcRKSt9exception(ptr noundef nonnull align 8 dereferenceable(8) %0, ptr noundef %1, ptr noundef nonnull align 8 dereferenceable(8) %2) #4 align 2 {
  %4 = alloca ptr, align 8
  %5 = alloca ptr, align 8
  %6 = alloca ptr, align 8
  store ptr %0, ptr %4, align 8
  store ptr %1, ptr %5, align 8
  store ptr %2, ptr %6, align 8
  %7 = load ptr, ptr %4, align 8
  %8 = getelementptr inbounds %"class.(anonymous namespace)::StreamLogger", ptr %7, i32 0, i32 0
  %9 = load ptr, ptr %8, align 8
  %10 = call noundef nonnull align 8 dereferenceable(8) ptr @_ZStlsISt11char_traitsIcEERSt13basic_ostreamIcT_ES5_PKc(ptr noundef nonnull align 8 dereferenceable(8) %9, ptr noundef @.str.53)
  %11 = load ptr, ptr %5, align 8
  %12 = call noundef nonnull align 8 dereferenceable(8) ptr @_ZStlsISt11char_traitsIcEERSt13basic_ostreamIcT_ES5_PKc(ptr noundef nonnull align 8 dereferenceable(8) %10, ptr noundef %11)
  %13 = call noundef nonnull align 8 dereferenceable(8) ptr @_ZStlsISt11char_traitsIcEERSt13basic_ostreamIcT_ES5_PKc(ptr noundef nonnull align 8 dereferenceable(8) %12, ptr noundef @.str.54)
  %14 = load ptr, ptr %6, align 8
  %15 = load ptr, ptr %14, align 8
  %16 = getelementptr inbounds ptr, ptr %15, i64 2
  %17 = load ptr, ptr %16, align 8
  %18 = call noundef ptr %17(ptr noundef nonnull align 8 dereferenceable(8) %14) #3
  %19 = call noundef nonnull align 8 dereferenceable(8) ptr @_ZStlsISt11char_traitsIcEERSt13basic_ostreamIcT_ES5_PKc(ptr noundef nonnull align 8 dereferenceable(8) %13, ptr noundef %18)
  %20 = call noundef nonnull align 8 dereferenceable(8) ptr @_ZStlsISt11char_traitsIcEERSt13basic_ostreamIcT_ES5_PKc(ptr noundef nonnull align 8 dereferenceable(8) %19, ptr noundef @.str.55)
  ret void
}

; Function Attrs: mustprogress nounwind uwtable
define internal noundef ptr @_ZSt12__to_addressIN3pro7details11inplace_ptrIN12_GLOBAL__N_112StreamLoggerEEEJEEDaRKT_DpT0_(ptr noundef nonnull align 8 dereferenceable(8) %0) #7 {
  %2 = alloca ptr, align 8
  store ptr %0, ptr %2, align 8
  %3 = load ptr, ptr %2, align 8
  %4 = call noundef ptr @_ZNK3pro7details11inplace_ptrIN12_GLOBAL__N_112StreamLoggerEEptEv(ptr noundef nonnull align 8 dereferenceable(8) %3) #3
  %5 = call noundef ptr @_ZSt12__to_addressIN12_GLOBAL__N_112StreamLoggerEEPT_S3_(ptr noundef %4) #3
  ret ptr %5
}

; Function Attrs: mustprogress uwtable
define internal void @_ZN12_GLOBAL__N_14spec3Log4__FTclINS_12StreamLoggerEJPKcRKSt9exceptionEEEDcRT_DpOT0_QrqXcldtfp_3Logspclgssr3stdE7forwardISC_Efp0_EEE(ptr noundef nonnull align 1 dereferenceable(1) %0, ptr noundef nonnull align 8 dereferenceable(8) %1, ptr noundef nonnull align 8 dereferenceable(8) %2, ptr noundef nonnull align 8 dereferenceable(8) %3) #4 align 2 {
  %5 = alloca ptr, align 8
  %6 = alloca ptr, align 8
  %7 = alloca ptr, align 8
  %8 = alloca ptr, align 8
  store ptr %0, ptr %5, align 8
  store ptr %1, ptr %6, align 8
  store ptr %2, ptr %7, align 8
  store ptr %3, ptr %8, align 8
  %9 = load ptr, ptr %6, align 8
  %10 = load ptr, ptr %7, align 8
  %11 = load ptr, ptr %10, align 8
  %12 = load ptr, ptr %8, align 8
  call void @_ZN12_GLOBAL__N_112StreamLogger3LogEPKcRKSt9exception(ptr noundef nonnull align 8 dereferenceable(8) %9, ptr noundef %11, ptr noundef nonnull align 8 dereferenceable(8) %12)
  ret void
}

; Function Attrs: mustprogress nounwind uwtable
define internal noundef ptr @_ZSt10to_addressIN3pro7details11inplace_ptrIN12_GLOBAL__N_112StreamLoggerEEEEDaRKT_(ptr noundef nonnull align 8 dereferenceable(8) %0) #7 {
  %2 = alloca ptr, align 8
  store ptr %0, ptr %2, align 8
  %3 = load ptr, ptr %2, align 8
  %4 = call noundef ptr @_ZSt12__to_addressIN3pro7details11inplace_ptrIN12_GLOBAL__N_112StreamLoggerEEEJEEDaRKT_DpT0_(ptr noundef nonnull align 8 dereferenceable(8) %3) #3
  ret ptr %4
}

; Function Attrs: mustprogress uwtable
define internal void @_ZN3pro7details15invoke_dispatchIN12_GLOBAL__N_14spec3Log4__FTEvJRNS2_12StreamLoggerEPKcRKSt9exceptionEEET0_DpOT1_(ptr noundef nonnull align 8 dereferenceable(8) %0, ptr noundef nonnull align 8 dereferenceable(8) %1, ptr noundef nonnull align 8 dereferenceable(8) %2) #4 {
  %4 = alloca ptr, align 8
  %5 = alloca ptr, align 8
  %6 = alloca ptr, align 8
  %7 = alloca %"struct.(anonymous namespace)::spec::Log::__FT", align 1
  store ptr %0, ptr %4, align 8
  store ptr %1, ptr %5, align 8
  store ptr %2, ptr %6, align 8
  %8 = load ptr, ptr %4, align 8
  %9 = load ptr, ptr %5, align 8
  %10 = load ptr, ptr %6, align 8
  call void @_ZN12_GLOBAL__N_14spec3Log4__FTclINS_12StreamLoggerEJPKcRKSt9exceptionEEEDcRT_DpOT0_QrqXcldtfp_3Logspclgssr3stdE7forwardISC_Efp0_EEE(ptr noundef nonnull align 1 dereferenceable(1) %7, ptr noundef nonnull align 8 dereferenceable(8) %8, ptr noundef nonnull align 8 dereferenceable(8) %9, ptr noundef nonnull align 8 dereferenceable(8) %10)
  ret void
}

; Function Attrs: mustprogress nounwind uwtable
define internal noundef nonnull align 8 dereferenceable(8) ptr @_ZN3pro7details10ptr_traitsINS0_11inplace_ptrIN12_GLOBAL__N_112StreamLoggerEEEE11dereferenceERKS5_(ptr noundef nonnull align 8 dereferenceable(8) %0) #7 align 2 {
  %2 = alloca ptr, align 8
  store ptr %0, ptr %2, align 8
  %3 = load ptr, ptr %2, align 8
  %4 = call noundef ptr @_ZSt10to_addressIN3pro7details11inplace_ptrIN12_GLOBAL__N_112StreamLoggerEEEEDaRKT_(ptr noundef nonnull align 8 dereferenceable(8) %3) #3
  ret ptr %4
}

; Function Attrs: mustprogress nounwind uwtable
define internal noundef ptr @_ZSt7launderIKN3pro7details11inplace_ptrIN12_GLOBAL__N_112StreamLoggerEEEEPT_S8_(ptr noundef %0) #7 {
  %2 = alloca ptr, align 8
  store ptr %0, ptr %2, align 8
  %3 = load ptr, ptr %2, align 8
  ret ptr %3
}

; Function Attrs: mustprogress uwtable
define internal void @_ZN3pro7details25invocation_dispatcher_refINS0_11inplace_ptrIN12_GLOBAL__N_112StreamLoggerEEENS3_4spec3Log4__FTEvJPKcRKSt9exceptionEEET1_PKSt4byteDpT2_(ptr noundef %0, ptr noundef %1, ptr noundef nonnull align 8 dereferenceable(8) %2) #4 {
  %4 = alloca ptr, align 8
  %5 = alloca ptr, align 8
  %6 = alloca ptr, align 8
  store ptr %0, ptr %4, align 8
  store ptr %1, ptr %5, align 8
  store ptr %2, ptr %6, align 8
  %7 = load ptr, ptr %4, align 8
  %8 = call noundef ptr @_ZSt7launderIKN3pro7details11inplace_ptrIN12_GLOBAL__N_112StreamLoggerEEEEPT_S8_(ptr noundef %7) #3
  %9 = call noundef nonnull align 8 dereferenceable(8) ptr @_ZN3pro7details10ptr_traitsINS0_11inplace_ptrIN12_GLOBAL__N_112StreamLoggerEEEE11dereferenceERKS5_(ptr noundef nonnull align 8 dereferenceable(8) %8) #3
  %10 = load ptr, ptr %6, align 8
  call void @_ZN3pro7details15invoke_dispatchIN12_GLOBAL__N_14spec3Log4__FTEvJRNS2_12StreamLoggerEPKcRKSt9exceptionEEET0_DpOT1_(ptr noundef nonnull align 8 dereferenceable(8) %9, ptr noundef nonnull align 8 dereferenceable(8) %5, ptr noundef nonnull align 8 dereferenceable(8) %10)
  ret void
}